; Function Attrs: nofree norecurse nosync nounwind memory(read, argmem: readwrite, inaccessiblemem: none) uwtable
define i32 @Mig_ManTypeNum(ptr noundef captures(none) initializes((80, 84)) %0, i32 noundef %1) local_unnamed_addr #4 {
  %3 = getelementptr inbounds nuw i8, ptr %0, i64 80
  %4 = getelementptr i8, ptr %0, i64 28
  %.val = load i32, ptr %4, align 4
  store i32 0, ptr %3, align 8
  %5 = icmp sgt i32 %.val, 0
  br i1 %5, label %.lr.ph27, label %.critedge

.lr.ph27:                                         ; preds = %2
  %6 = getelementptr i8, ptr %0, i64 32
  %.val18 = load ptr, ptr %6, align 8
  %7 = getelementptr inbounds nuw i8, ptr %0, i64 72
  %wide.trip.count = zext nneg i32 %.val to i64
  br label %8

8:                                                ; preds = %.lr.ph27, %._crit_edge
  %indvars.iv = phi i64 [ 0, %.lr.ph27 ], [ %indvars.iv.next, %._crit_edge ]
  %.025 = phi i32 [ 0, %.lr.ph27 ], [ %.1.lcssa, %._crit_edge ]
  %9 = getelementptr inbounds nuw ptr, ptr %.val18, i64 %indvars.iv
  %10 = load ptr, ptr %9, align 8
  store ptr %10, ptr %7, align 8
  %.not = icmp eq ptr %10, null
  br i1 %.not, label %.critedge, label %.preheader

.preheader:                                       ; preds = %8
  %11 = getelementptr i8, ptr %10, i64 12
  %.014.val20 = load i32, ptr %11, align 4
  %12 = icmp ult i32 %.014.val20, -2
  br i1 %12, label %.lr.ph, label %._crit_edge

.lr.ph:                                           ; preds = %.preheader, %26
  %.123 = phi i32 [ %.2, %26 ], [ %.025, %.preheader ]
  %.01421 = phi ptr [ %27, %26 ], [ %10, %.preheader ]
  %13 = getelementptr i8, ptr %.01421, i64 4
  %.014.val19 = load i32, ptr %13, align 4
  %14 = icmp ugt i32 %.014.val19, -3
  br i1 %14, label %26, label %Mig_ObjIsNode2.exit.i.i

Mig_ObjIsNode2.exit.i.i:                          ; preds = %.lr.ph
  %15 = getelementptr inbounds nuw i8, ptr %.01421, i64 8
  %16 = load i32, ptr %15, align 4
  %17 = icmp ult i32 %16, -2
  br i1 %17, label %Mig_ObjIsXor.exit.thread.i, label %Mig_ObjIsAnd.exit.i

Mig_ObjIsAnd.exit.i:                              ; preds = %Mig_ObjIsNode2.exit.i.i
  %18 = load i32, ptr %.01421, align 4
  %19 = lshr i32 %18, 1
  %20 = lshr i32 %.014.val19, 1
  %.not.i = icmp samesign ult i32 %19, %20
  br i1 %.not.i, label %Mig_ObjNodeType.exit, label %Mig_ObjIsXor.exit.i

Mig_ObjIsXor.exit.i:                              ; preds = %Mig_ObjIsAnd.exit.i
  %21 = icmp samesign ule i32 %19, %20
  %cond.fr.i = freeze i1 %21
  br i1 %cond.fr.i, label %Mig_ObjIsXor.exit.thread.i, label %Mig_ObjNodeType.exit

Mig_ObjIsXor.exit.thread.i:                       ; preds = %Mig_ObjIsXor.exit.i, %Mig_ObjIsNode2.exit.i.i
  br label %Mig_ObjNodeType.exit

Mig_ObjNodeType.exit:                             ; preds = %Mig_ObjIsAnd.exit.i, %Mig_ObjIsXor.exit.i, %Mig_ObjIsXor.exit.thread.i
  %22 = phi i32 [ 1, %Mig_ObjIsAnd.exit.i ], [ 3, %Mig_ObjIsXor.exit.thread.i ], [ 2, %Mig_ObjIsXor.exit.i ]
  %23 = icmp eq i32 %22, %1
  %24 = zext i1 %23 to i32
  %25 = add nsw i32 %.123, %24
  br label %26

26:                                               ; preds = %Mig_ObjNodeType.exit, %.lr.ph
  %.2 = phi i32 [ %25, %Mig_ObjNodeType.exit ], [ %.123, %.lr.ph ]
  %27 = getelementptr inbounds nuw i8, ptr %.01421, i64 16
  %28 = getelementptr i8, ptr %.01421, i64 28
  %.014.val = load i32, ptr %28, align 4
  %29 = icmp ult i32 %.014.val, -2
  br i1 %29, label %.lr.ph, label %._crit_edge, !llvm.loop !6

._crit_edge:                                      ; preds = %26, %.preheader
  %.1.lcssa = phi i32 [ %.025, %.preheader ], [ %.2, %26 ]
  %indvars.iv.next = add nuw nsw i64 %indvars.iv, 1
  %30 = trunc nuw nsw i64 %indvars.iv.next to i32
  store i32 %30, ptr %3, align 8
  %exitcond.not = icmp eq i64 %indvars.iv.next, %wide.trip.count
  br i1 %exitcond.not, label %.critedge, label %8, !llvm.loop !7

.critedge:                                        ; preds = %8, %._crit_edge, %2
  %.0.lcssa = phi i32 [ 0, %2 ], [ %.1.lcssa, %._crit_edge ], [ %.025, %8 ]
  ret i32 %.0.lcssa
}